; Function Attrs: nounwind sspstrong uwtable
define internal void @quorum_close(ptr noundef %bs) #0 {
entry:
  %opaque = getelementptr inbounds nuw i8, ptr %bs, i64 24
  %0 = load ptr, ptr %opaque, align 8
  tail call void @bdrv_graph_wrlock(ptr noundef null) #17
  %num_children = getelementptr inbounds nuw i8, ptr %0, i64 8
  %1 = load i32, ptr %num_children, align 8
  %cmp6 = icmp sgt i32 %1, 0
  br i1 %cmp6, label %for.body, label %for.end

for.body:                                         ; preds = %entry, %for.body
  %indvars.iv = phi i64 [ %indvars.iv.next, %for.body ], [ 0, %entry ]
  %2 = load ptr, ptr %0, align 8
  %arrayidx = getelementptr ptr, ptr %2, i64 %indvars.iv
  %3 = load ptr, ptr %arrayidx, align 8
  tail call void @bdrv_unref_child(ptr noundef %bs, ptr noundef %3) #17
  %indvars.iv.next = add nuw nsw i64 %indvars.iv, 1
  %4 = load i32, ptr %num_children, align 8
  %5 = sext i32 %4 to i64
  %cmp = icmp slt i64 %indvars.iv.next, %5
  br i1 %cmp, label %for.body, label %for.end, !llvm.loop !10

for.end:                                          ; preds = %for.body, %entry
  tail call void @bdrv_graph_wrunlock(ptr noundef null) #17
  %6 = load ptr, ptr %0, align 8
  tail call void @g_free(ptr noundef %6) #17
  ret void
}